target datalayout = "e-m:e-p270:32:32-p271:32:32-p272:64:64-i64:64-i128:128-f80:128-n8:16:32:64-S128"
target triple = "x86_64-pc-linux-gnu"

%struct._fvalue_t = type { ptr, %union.anon.1 }
%union.anon.1 = type { %struct._protocol_value_t }
%struct._protocol_value_t = type { ptr, i32, ptr, i8 }

@.str.46 = private unnamed_addr constant [26 x i8] c"sint64_subtract: overflow\00", align 1

; Function Attrs: inlinehint nounwind null_pointer_is_valid sspstrong uwtable
define internal zeroext i1 @psnip_safe_int64_sub(ptr noundef %0, i64 noundef %1, i64 noundef %2) #8 {
  %4 = alloca ptr, align 8
  %5 = alloca i64, align 8
  %6 = alloca i64, align 8
  store ptr %0, ptr %4, align 8
  store i64 %1, ptr %5, align 8
  store i64 %2, ptr %6, align 8
  %7 = load i64, ptr %5, align 8
  %8 = load i64, ptr %6, align 8
  %9 = load ptr, ptr %4, align 8
  %10 = call { i64, i1 } @llvm.ssub.with.overflow.i64(i64 %7, i64 %8)
  %11 = extractvalue { i64, i1 } %10, 1
  %12 = extractvalue { i64, i1 } %10, 0
  store i64 %12, ptr %9, align 8
  %13 = xor i1 %11, true
  ret i1 %13
}

; Function Attrs: null_pointer_is_valid sspstrong uwtable
define internal i32 @_sint64_subtract(ptr noundef %0, i64 noundef %1, i64 noundef %2, ptr noundef %3) #0 {
  %5 = alloca i32, align 4
  %6 = alloca ptr, align 8
  %7 = alloca i64, align 8
  %8 = alloca i64, align 8
  %9 = alloca ptr, align 8
  store ptr %0, ptr %6, align 8
  store i64 %1, ptr %7, align 8
  store i64 %2, ptr %8, align 8
  store ptr %3, ptr %9, align 8
  %10 = load ptr, ptr %6, align 8
  %11 = load i64, ptr %7, align 8
  %12 = load i64, ptr %8, align 8
  %13 = call zeroext i1 @psnip_safe_int64_sub(ptr noundef %10, i64 noundef %11, i64 noundef %12)
  br i1 %13, label %17, label %14

14:                                               ; preds = %4
  %15 = call noalias ptr (ptr, ptr, ...) @wmem_strdup_printf(ptr noundef null, ptr noundef @.str.46)
  %16 = load ptr, ptr %9, align 8
  store ptr %15, ptr %16, align 8
  store i32 4, ptr %5, align 4
  br label %18

17:                                               ; preds = %4
  store i32 0, ptr %5, align 4
  br label %18

18:                                               ; preds = %17, %14
  %19 = load i32, ptr %5, align 4
  ret i32 %19
}

; Function Attrs: null_pointer_is_valid sspstrong uwtable
define internal i32 @sint64_subtract(ptr noundef %0, ptr noundef %1, ptr noundef %2, ptr noundef %3) #0 {
  %5 = alloca ptr, align 8
  %6 = alloca ptr, align 8
  %7 = alloca ptr, align 8
  %8 = alloca ptr, align 8
  store ptr %0, ptr %5, align 8
  store ptr %1, ptr %6, align 8
  store ptr %2, ptr %7, align 8
  store ptr %3, ptr %8, align 8
  %9 = load ptr, ptr %5, align 8
  %10 = getelementptr inbounds nuw %struct._fvalue_t, ptr %9, i32 0, i32 1
  %11 = load ptr, ptr %6, align 8
  %12 = getelementptr inbounds nuw %struct._fvalue_t, ptr %11, i32 0, i32 1
  %13 = load i64, ptr %12, align 8
  %14 = load ptr, ptr %7, align 8
  %15 = getelementptr inbounds nuw %struct._fvalue_t, ptr %14, i32 0, i32 1
  %16 = load i64, ptr %15, align 8
  %17 = load ptr, ptr %8, align 8
  %18 = call i32 @_sint64_subtract(ptr noundef %10, i64 noundef %13, i64 noundef %16, ptr noundef %17)
  ret i32 %18
}